(dp0
S'Subtitle'
p1
S''
p2
sS'ProjectTitle'
p3
g2
sS'AdditionalComments'
p4
g2
sS'ProfileSummary'
p5
(dp6
S'Designer'
p7
S'deepa'
p8
sS'CompanyLogo'
p9
g2
sS'Group/TeamName'
p10
S'Osdag1'
p11
sS'CompanyName'
p12
S'Risa2'
p13
ssS'Method'
p14
S'Limit State Design'
p15
sS'JobNumber'
p16
g2
s.