(dp0
S'Subtitle'
p1
S''
p2
sS'ProjectTitle'
p3
g2
sS'AdditionalComments'
p4
g2
sS'ProfileSummary'
p5
(dp6
S'Designer'
p7
S'Deep'
p8
sS'CompanyLogo'
p9
S'Fossee_logo.png'
p10
sS'Group/TeamName'
p11
S'Osdag'
p12
sS'CompanyName'
p13
S'Risa'
p14
ssS'Method'
p15
S'Limit State Design'
p16
sS'JobNumber'
p17
g2
s.